#include <math.h>
#include <stdio.h>
#include <stdlib.h>
#include <string.h>

int main()
{
	int ROW,COL;
	int array[100][100];
	scanf("%d%d",&ROW,&COL);
	for(int row=0;row<ROW;row++)
	{
		for(int col=0;col<COL;col++)
		{
			scanf("%d",&array[row][col]);
		}
	}
	//????
    int sx_row=0,xx_row=ROW-1,sx_col=0,xx_col=COL-1;

    while((xx_row>sx_row)&&(xx_col>sx_col))
	
	
	{
		for(int i1=sx_row,j1=sx_col;j1<xx_col;j1++)
		{
			
			printf("%d\n",array[i1][j1]);
		}
	    for(int j2=xx_col,i2=sx_row;i2<xx_row;i2++)
		{
		
			printf("%d\n",array[i2][j2]);
		}
	    for(int i3=xx_row,j3=xx_col;j3>sx_col;j3--)
		{
			
		    printf("%d\n",array[i3][j3]);
		}
	    for(int i4=xx_row,j4=sx_col;i4>sx_row;i4--)
		{
		
			printf("%d\n",array[i4][j4]);
		}
	    sx_row++;
	    sx_col++;
	    xx_row--;
	    xx_col--;
	}
	if((sx_row==xx_row)&&(sx_col!=xx_col))
	{
        for(int i=sx_col;i<=xx_col;i++)
		{
			printf("%d\n",array[sx_row][i]);
		}
	}
	else if(sx_col==xx_col)
	{
		for(int j=sx_row;j<=xx_row;j++)
		{
			printf("%d\n",array[j][sx_col]);
		}
	}
	return 0;
}