; ModuleID = '46/1162.c'
source_filename = "46/1162.c"
target datalayout = "e-m:e-p270:32:32-p271:32:32-p272:64:64-i64:64-f80:128-n8:16:32:64-S128"
target triple = "x86_64-pc-linux-gnu"

@.str = private unnamed_addr constant [5 x i8] c"%d%d\00", align 1
@.str.1 = private unnamed_addr constant [3 x i8] c"%d\00", align 1
@.str.2 = private unnamed_addr constant [4 x i8] c"%d\0A\00", align 1

; Function Attrs: noinline nounwind uwtable
define dso_local i32 @main() #0 {
  %1 = alloca i32, align 4
  %2 = alloca i32, align 4
  %3 = alloca i32, align 4
  %4 = alloca [100 x [100 x i32]], align 16
  %5 = alloca i32, align 4
  %6 = alloca i32, align 4
  %7 = alloca i32, align 4
  %8 = alloca i32, align 4
  %9 = alloca i32, align 4
  %10 = alloca i32, align 4
  %11 = alloca i32, align 4
  %12 = alloca i32, align 4
  %13 = alloca i32, align 4
  %14 = alloca i32, align 4
  %15 = alloca i32, align 4
  %16 = alloca i32, align 4
  %17 = alloca i32, align 4
  %18 = alloca i32, align 4
  %19 = alloca i32, align 4
  %20 = alloca i32, align 4
  store i32 0, i32* %1, align 4
  %21 = call i32 (i8*, ...) @__isoc99_scanf(i8* getelementptr inbounds ([5 x i8], [5 x i8]* @.str, i64 0, i64 0), i32* %2, i32* %3)
  store i32 0, i32* %5, align 4
  br label %22

22:                                               ; preds = %43, %0
  %23 = load i32, i32* %5, align 4
  %24 = load i32, i32* %2, align 4
  %25 = icmp slt i32 %23, %24
  br i1 %25, label %26, label %46

26:                                               ; preds = %22
  store i32 0, i32* %6, align 4
  br label %27

27:                                               ; preds = %39, %26
  %28 = load i32, i32* %6, align 4
  %29 = load i32, i32* %3, align 4
  %30 = icmp slt i32 %28, %29
  br i1 %30, label %31, label %42

31:                                               ; preds = %27
  %32 = load i32, i32* %5, align 4
  %33 = sext i32 %32 to i64
  %34 = getelementptr inbounds [100 x [100 x i32]], [100 x [100 x i32]]* %4, i64 0, i64 %33
  %35 = load i32, i32* %6, align 4
  %36 = sext i32 %35 to i64
  %37 = getelementptr inbounds [100 x i32], [100 x i32]* %34, i64 0, i64 %36
  %38 = call i32 (i8*, ...) @__isoc99_scanf(i8* getelementptr inbounds ([3 x i8], [3 x i8]* @.str.1, i64 0, i64 0), i32* %37)
  br label %39

39:                                               ; preds = %31
  %40 = load i32, i32* %6, align 4
  %41 = add nsw i32 %40, 1
  store i32 %41, i32* %6, align 4
  br label %27

42:                                               ; preds = %27
  br label %43

43:                                               ; preds = %42
  %44 = load i32, i32* %5, align 4
  %45 = add nsw i32 %44, 1
  store i32 %45, i32* %5, align 4
  br label %22

46:                                               ; preds = %22
  store i32 0, i32* %7, align 4
  %47 = load i32, i32* %2, align 4
  %48 = sub nsw i32 %47, 1
  store i32 %48, i32* %8, align 4
  store i32 0, i32* %9, align 4
  %49 = load i32, i32* %3, align 4
  %50 = sub nsw i32 %49, 1
  store i32 %50, i32* %10, align 4
  br label %51

51:                                               ; preds = %137, %46
  %52 = load i32, i32* %8, align 4
  %53 = load i32, i32* %7, align 4
  %54 = icmp sgt i32 %52, %53
  br i1 %54, label %55, label %59

55:                                               ; preds = %51
  %56 = load i32, i32* %10, align 4
  %57 = load i32, i32* %9, align 4
  %58 = icmp sgt i32 %56, %57
  br label %59

59:                                               ; preds = %55, %51
  %60 = phi i1 [ false, %51 ], [ %58, %55 ]
  br i1 %60, label %61, label %146

61:                                               ; preds = %59
  %62 = load i32, i32* %7, align 4
  store i32 %62, i32* %11, align 4
  %63 = load i32, i32* %9, align 4
  store i32 %63, i32* %12, align 4
  br label %64

64:                                               ; preds = %77, %61
  %65 = load i32, i32* %12, align 4
  %66 = load i32, i32* %10, align 4
  %67 = icmp slt i32 %65, %66
  br i1 %67, label %68, label %80

68:                                               ; preds = %64
  %69 = load i32, i32* %11, align 4
  %70 = sext i32 %69 to i64
  %71 = getelementptr inbounds [100 x [100 x i32]], [100 x [100 x i32]]* %4, i64 0, i64 %70
  %72 = load i32, i32* %12, align 4
  %73 = sext i32 %72 to i64
  %74 = getelementptr inbounds [100 x i32], [100 x i32]* %71, i64 0, i64 %73
  %75 = load i32, i32* %74, align 4
  %76 = call i32 (i8*, ...) @printf(i8* getelementptr inbounds ([4 x i8], [4 x i8]* @.str.2, i64 0, i64 0), i32 %75)
  br label %77

77:                                               ; preds = %68
  %78 = load i32, i32* %12, align 4
  %79 = add nsw i32 %78, 1
  store i32 %79, i32* %12, align 4
  br label %64

80:                                               ; preds = %64
  %81 = load i32, i32* %10, align 4
  store i32 %81, i32* %13, align 4
  %82 = load i32, i32* %7, align 4
  store i32 %82, i32* %14, align 4
  br label %83

83:                                               ; preds = %96, %80
  %84 = load i32, i32* %14, align 4
  %85 = load i32, i32* %8, align 4
  %86 = icmp slt i32 %84, %85
  br i1 %86, label %87, label %99

87:                                               ; preds = %83
  %88 = load i32, i32* %14, align 4
  %89 = sext i32 %88 to i64
  %90 = getelementptr inbounds [100 x [100 x i32]], [100 x [100 x i32]]* %4, i64 0, i64 %89
  %91 = load i32, i32* %13, align 4
  %92 = sext i32 %91 to i64
  %93 = getelementptr inbounds [100 x i32], [100 x i32]* %90, i64 0, i64 %92
  %94 = load i32, i32* %93, align 4
  %95 = call i32 (i8*, ...) @printf(i8* getelementptr inbounds ([4 x i8], [4 x i8]* @.str.2, i64 0, i64 0), i32 %94)
  br label %96

96:                                               ; preds = %87
  %97 = load i32, i32* %14, align 4
  %98 = add nsw i32 %97, 1
  store i32 %98, i32* %14, align 4
  br label %83

99:                                               ; preds = %83
  %100 = load i32, i32* %8, align 4
  store i32 %100, i32* %15, align 4
  %101 = load i32, i32* %10, align 4
  store i32 %101, i32* %16, align 4
  br label %102

102:                                              ; preds = %115, %99
  %103 = load i32, i32* %16, align 4
  %104 = load i32, i32* %9, align 4
  %105 = icmp sgt i32 %103, %104
  br i1 %105, label %106, label %118

106:                                              ; preds = %102
  %107 = load i32, i32* %15, align 4
  %108 = sext i32 %107 to i64
  %109 = getelementptr inbounds [100 x [100 x i32]], [100 x [100 x i32]]* %4, i64 0, i64 %108
  %110 = load i32, i32* %16, align 4
  %111 = sext i32 %110 to i64
  %112 = getelementptr inbounds [100 x i32], [100 x i32]* %109, i64 0, i64 %111
  %113 = load i32, i32* %112, align 4
  %114 = call i32 (i8*, ...) @printf(i8* getelementptr inbounds ([4 x i8], [4 x i8]* @.str.2, i64 0, i64 0), i32 %113)
  br label %115

115:                                              ; preds = %106
  %116 = load i32, i32* %16, align 4
  %117 = add nsw i32 %116, -1
  store i32 %117, i32* %16, align 4
  br label %102

118:                                              ; preds = %102
  %119 = load i32, i32* %8, align 4
  store i32 %119, i32* %17, align 4
  %120 = load i32, i32* %9, align 4
  store i32 %120, i32* %18, align 4
  br label %121

121:                                              ; preds = %134, %118
  %122 = load i32, i32* %17, align 4
  %123 = load i32, i32* %7, align 4
  %124 = icmp sgt i32 %122, %123
  br i1 %124, label %125, label %137

125:                                              ; preds = %121
  %126 = load i32, i32* %17, align 4
  %127 = sext i32 %126 to i64
  %128 = getelementptr inbounds [100 x [100 x i32]], [100 x [100 x i32]]* %4, i64 0, i64 %127
  %129 = load i32, i32* %18, align 4
  %130 = sext i32 %129 to i64
  %131 = getelementptr inbounds [100 x i32], [100 x i32]* %128, i64 0, i64 %130
  %132 = load i32, i32* %131, align 4
  %133 = call i32 (i8*, ...) @printf(i8* getelementptr inbounds ([4 x i8], [4 x i8]* @.str.2, i64 0, i64 0), i32 %132)
  br label %134

134:                                              ; preds = %125
  %135 = load i32, i32* %17, align 4
  %136 = add nsw i32 %135, -1
  store i32 %136, i32* %17, align 4
  br label %121

137:                                              ; preds = %121
  %138 = load i32, i32* %7, align 4
  %139 = add nsw i32 %138, 1
  store i32 %139, i32* %7, align 4
  %140 = load i32, i32* %9, align 4
  %141 = add nsw i32 %140, 1
  store i32 %141, i32* %9, align 4
  %142 = load i32, i32* %8, align 4
  %143 = add nsw i32 %142, -1
  store i32 %143, i32* %8, align 4
  %144 = load i32, i32* %10, align 4
  %145 = add nsw i32 %144, -1
  store i32 %145, i32* %10, align 4
  br label %51

146:                                              ; preds = %59
  %147 = load i32, i32* %7, align 4
  %148 = load i32, i32* %8, align 4
  %149 = icmp eq i32 %147, %148
  br i1 %149, label %150, label %173

150:                                              ; preds = %146
  %151 = load i32, i32* %9, align 4
  %152 = load i32, i32* %10, align 4
  %153 = icmp ne i32 %151, %152
  br i1 %153, label %154, label %173

154:                                              ; preds = %150
  %155 = load i32, i32* %9, align 4
  store i32 %155, i32* %19, align 4
  br label %156

156:                                              ; preds = %169, %154
  %157 = load i32, i32* %19, align 4
  %158 = load i32, i32* %10, align 4
  %159 = icmp sle i32 %157, %158
  br i1 %159, label %160, label %172

160:                                              ; preds = %156
  %161 = load i32, i32* %7, align 4
  %162 = sext i32 %161 to i64
  %163 = getelementptr inbounds [100 x [100 x i32]], [100 x [100 x i32]]* %4, i64 0, i64 %162
  %164 = load i32, i32* %19, align 4
  %165 = sext i32 %164 to i64
  %166 = getelementptr inbounds [100 x i32], [100 x i32]* %163, i64 0, i64 %165
  %167 = load i32, i32* %166, align 4
  %168 = call i32 (i8*, ...) @printf(i8* getelementptr inbounds ([4 x i8], [4 x i8]* @.str.2, i64 0, i64 0), i32 %167)
  br label %169

169:                                              ; preds = %160
  %170 = load i32, i32* %19, align 4
  %171 = add nsw i32 %170, 1
  store i32 %171, i32* %19, align 4
  br label %156

172:                                              ; preds = %156
  br label %197

173:                                              ; preds = %150, %146
  %174 = load i32, i32* %9, align 4
  %175 = load i32, i32* %10, align 4
  %176 = icmp eq i32 %174, %175
  br i1 %176, label %177, label %196

177:                                              ; preds = %173
  %178 = load i32, i32* %7, align 4
  store i32 %178, i32* %20, align 4
  br label %179

179:                                              ; preds = %192, %177
  %180 = load i32, i32* %20, align 4
  %181 = load i32, i32* %8, align 4
  %182 = icmp sle i32 %180, %181
  br i1 %182, label %183, label %195

183:                                              ; preds = %179
  %184 = load i32, i32* %20, align 4
  %185 = sext i32 %184 to i64
  %186 = getelementptr inbounds [100 x [100 x i32]], [100 x [100 x i32]]* %4, i64 0, i64 %185
  %187 = load i32, i32* %9, align 4
  %188 = sext i32 %187 to i64
  %189 = getelementptr inbounds [100 x i32], [100 x i32]* %186, i64 0, i64 %188
  %190 = load i32, i32* %189, align 4
  %191 = call i32 (i8*, ...) @printf(i8* getelementptr inbounds ([4 x i8], [4 x i8]* @.str.2, i64 0, i64 0), i32 %190)
  br label %192

192:                                              ; preds = %183
  %193 = load i32, i32* %20, align 4
  %194 = add nsw i32 %193, 1
  store i32 %194, i32* %20, align 4
  br label %179

195:                                              ; preds = %179
  br label %196

196:                                              ; preds = %195, %173
  br label %197

197:                                              ; preds = %196, %172
  ret i32 0
}

declare dso_local i32 @__isoc99_scanf(i8*, ...) #1

declare dso_local i32 @printf(i8*, ...) #1


!llvm.module.flags = !{!0}
!llvm.ident = !{!1}

!0 = !{i32 1, !"wchar_size", i32 4}
!1 = !{!"clang version 10.0.0-4ubuntu1 "}
